Certificate:
    Data:
        Version: 3 (0x2)
        Serial Number:
            4b:e3:db:20:e2:d0:51:96:fa:e7:06:bd:54:d4:81:95:d1:6f:3d:20
        Signature Algorithm: sha256WithRSAEncryption
        Issuer: C=FR, ST=Some-State, O=INSA, CN=ca.fr/emailAddress=tata@tata.fr
        Validity
            Not Before: Mar  6 20:16:42 2022 GMT
            Not After : Mar  6 20:16:42 2023 GMT
        Subject: C=FR, ST=Occitanie, L=Toulouse, O=XXXX, OU=dim. 06 mars 2022 21:16:41 CET, CN=maud@microsoft.org/emailAddress=tata@tata.fr
        Subject Public Key Info:
            Public Key Algorithm: rsaEncryption
                RSA Public-Key: (2048 bit)
                Modulus:
                    00:ce:55:92:2c:ef:ac:bd:79:5e:29:4b:f3:5d:ca:
                    c2:a3:37:97:41:85:51:8a:db:12:91:6d:49:7a:57:
                    50:2f:04:4e:a6:a6:cd:55:d3:35:d9:5c:5f:31:87:
                    25:ae:7b:76:56:2e:c2:ae:61:45:b7:e9:a2:1b:b4:
                    0a:4b:3e:68:d8:89:01:99:0f:66:c5:46:fc:e2:d8:
                    15:29:86:2b:b2:d0:81:db:b3:6d:a7:d2:bd:bf:07:
                    c3:f9:4b:aa:7f:e3:c9:a4:24:e0:69:8f:42:08:9b:
                    da:14:4e:d7:d6:fe:34:72:51:37:40:f1:56:4b:cd:
                    f4:43:76:54:87:b8:9d:79:1b:24:c1:36:3c:f5:48:
                    6b:ac:89:b1:d3:c3:0e:7b:04:0e:17:90:5b:6d:bc:
                    6e:cc:e6:21:3b:a7:a9:c6:56:e8:3e:5e:ce:9d:61:
                    7b:b1:c0:33:81:4f:d3:c1:94:05:bb:16:22:07:0b:
                    b7:cb:48:3f:80:bd:cb:4a:4d:26:23:79:9e:bd:de:
                    a5:09:79:66:15:af:6e:ca:93:f0:63:e1:37:aa:ed:
                    4e:7c:34:03:4f:94:86:e5:df:31:f1:4c:34:2a:46:
                    9f:28:fd:1a:6d:65:24:17:a9:80:6e:95:ca:13:e9:
                    90:75:d6:d1:7d:8b:2f:5b:17:f2:c3:42:93:bb:fe:
                    41:b5
                Exponent: 65537 (0x10001)
        X509v3 extensions:
            X509v3 Basic Constraints: 
                CA:FALSE
            Netscape Comment: 
                OpenSSL Generated Certificate
            X509v3 Subject Key Identifier: 
                BE:5B:5E:C7:69:74:02:E1:CF:EE:F2:5B:54:7A:CF:F8:60:C0:02:27
            X509v3 Authority Key Identifier: 
                keyid:C8:A3:D3:9A:8B:1C:A4:03:B8:58:D9:31:73:60:E5:DA:0A:83:DC:71

    Signature Algorithm: sha256WithRSAEncryption
         7e:9d:07:97:49:c9:3e:12:d5:ef:12:c0:bf:c1:0d:1c:a0:87:
         2d:28:da:5e:82:aa:a5:3c:4b:43:6b:0b:97:ca:79:96:2c:56:
         3f:ce:aa:07:4f:17:8b:4b:1a:0d:1e:c3:09:66:44:76:1c:d8:
         8f:42:e4:01:c0:ca:94:20:1f:58:00:57:95:aa:7c:6f:e3:5c:
         43:8b:2a:31:36:e2:82:9f:c8:53:bc:24:33:02:69:83:6d:a7:
         32:5b:7e:48:64:62:11:0c:af:e4:de:86:e8:1a:b4:1f:de:63:
         db:35:06:e6:ff:e4:3b:0a:6d:ea:c7:f8:72:b3:cf:61:b0:a5:
         b2:a2:ae:88:c1:d7:b4:8e:74:4d:1e:0a:b9:24:37:ea:53:9b:
         51:9f:a0:b7:ae:42:9e:06:4c:8f:05:ff:23:2c:3d:3d:14:be:
         dc:d6:ca:62:8f:bc:c2:25:3d:4b:f9:75:4a:e3:9d:50:c4:4b:
         8e:6b:13:0e:eb:b0:3b:8c:07:97:58:d1:3a:a2:7b:09:e6:78:
         74:01:e1:8d:1e:69:c0:cc:ad:16:6b:96:2e:72:f9:52:94:f6:
         a1:02:a1:b0:1d:10:e0:80:df:e9:ba:8d:ea:8d:53:ce:c7:6f:
         ee:57:04:95:81:41:96:0b:74:f8:56:02:3f:fc:6f:c5:cb:36:
         26:56:b9:49
-----BEGIN CERTIFICATE-----
MIIEDjCCAvagAwIBAgIUS+PbIOLQUZb65wa9VNSBldFvPSAwDQYJKoZIhvcNAQEL
BQAwXjELMAkGA1UEBhMCRlIxEzARBgNVBAgMClNvbWUtU3RhdGUxDTALBgNVBAoM
BElOU0ExDjAMBgNVBAMMBWNhLmZyMRswGQYJKoZIhvcNAQkBFgx0YXRhQHRhdGEu
ZnIwHhcNMjIwMzA2MjAxNjQyWhcNMjMwMzA2MjAxNjQyWjCBpjELMAkGA1UEBhMC
RlIxEjAQBgNVBAgMCU9jY2l0YW5pZTERMA8GA1UEBwwIVG91bG91c2UxDTALBgNV
BAoMBFhYWFgxJzAlBgNVBAsMHmRpbS4gMDYgbWFycyAyMDIyIDIxOjE2OjQxIENF
VDEbMBkGA1UEAwwSbWF1ZEBtaWNyb3NvZnQub3JnMRswGQYJKoZIhvcNAQkBFgx0
YXRhQHRhdGEuZnIwggEiMA0GCSqGSIb3DQEBAQUAA4IBDwAwggEKAoIBAQDOVZIs
76y9eV4pS/NdysKjN5dBhVGK2xKRbUl6V1AvBE6mps1V0zXZXF8xhyWue3ZWLsKu
YUW36aIbtApLPmjYiQGZD2bFRvzi2BUphiuy0IHbs22n0r2/B8P5S6p/48mkJOBp
j0IIm9oUTtfW/jRyUTdA8VZLzfRDdlSHuJ15GyTBNjz1SGusibHTww57BA4XkFtt
vG7M5iE7p6nGVug+Xs6dYXuxwDOBT9PBlAW7FiIHC7fLSD+AvctKTSYjeZ693qUJ
eWYVr27Kk/Bj4Teq7U58NANPlIbl3zHxTDQqRp8o/RptZSQXqYBulcoT6ZB11tF9
iy9bF/LDQpO7/kG1AgMBAAGjezB5MAkGA1UdEwQCMAAwLAYJYIZIAYb4QgENBB8W
HU9wZW5TU0wgR2VuZXJhdGVkIENlcnRpZmljYXRlMB0GA1UdDgQWBBS+W17HaXQC
4c/u8ltUes/4YMACJzAfBgNVHSMEGDAWgBTIo9OaixykA7hY2TFzYOXaCoPccTAN
BgkqhkiG9w0BAQsFAAOCAQEAfp0Hl0nJPhLV7xLAv8ENHKCHLSjaXoKqpTxLQ2sL
l8p5lixWP86qB08Xi0saDR7DCWZEdhzYj0LkAcDKlCAfWABXlap8b+NcQ4sqMTbi
gp/IU7wkMwJpg22nMlt+SGRiEQyv5N6G6Bq0H95j2zUG5v/kOwpt6sf4crPPYbCl
sqKuiMHXtI50TR4KuSQ36lObUZ+gt65CngZMjwX/Iyw9PRS+3NbKYo+8wiU9S/l1
SuOdUMRLjmsTDuuwO4wHl1jROqJ7CeZ4dAHhjR5pwMytFmuWLnL5UpT2oQKhsB0Q
4IDf6bqN6o1Tzsdv7lcElYFBlgt0+FYCP/xvxcs2Jla5SQ==
-----END CERTIFICATE-----
-----BEGIN CERTIFICATE-----
MIIDnTCCAoWgAwIBAgIUS+PbIOLQUZb65wa9VNSBldFvPRcwDQYJKoZIhvcNAQEL
BQAwXjELMAkGA1UEBhMCRlIxEzARBgNVBAgMClNvbWUtU3RhdGUxDTALBgNVBAoM
BElOU0ExDjAMBgNVBAMMBWNhLmZyMRswGQYJKoZIhvcNAQkBFgx0YXRhQHRhdGEu
ZnIwHhcNMjIwMjI3MTU1ODE2WhcNMjUwMjI2MTU1ODE2WjBeMQswCQYDVQQGEwJG
UjETMBEGA1UECAwKU29tZS1TdGF0ZTENMAsGA1UECgwESU5TQTEOMAwGA1UEAwwF
Y2EuZnIxGzAZBgkqhkiG9w0BCQEWDHRhdGFAdGF0YS5mcjCCASIwDQYJKoZIhvcN
AQEBBQADggEPADCCAQoCggEBALKS8eigXbcgcud6xgkOuGKvRP+5rQjMABGHqrt/
q8EuUfbh0cEuo1vjZsoE+TQ4g2TOdFDLHNZi4oerdClBcXZNHz01s7R33Q9x8NQN
dmtfJikH5+njiWDwCPxtQo3FlHVGMsNH7XAb+XMMGRwYwITOaejEGyRfh9pDR09v
bH3QgYnhJPlrs0r/yZrcB+GMbr9JfB4jGC1pQ3yEIfYr3tU1NZYZc9S+7zR1kY1L
4zq3trDv7Ukx4SwVEnmfBHenoSswX+YjNONxnPEaCAJ1kZT7VdM2LWu8Sfnc63ki
qipImr1+RKR/9miIDNYrCFhlYNbiGsCIBgrtDaerI0v5SEUCAwEAAaNTMFEwHQYD
VR0OBBYEFMij05qLHKQDuFjZMXNg5doKg9xxMB8GA1UdIwQYMBaAFMij05qLHKQD
uFjZMXNg5doKg9xxMA8GA1UdEwEB/wQFMAMBAf8wDQYJKoZIhvcNAQELBQADggEB
AKQA4Bb6P7zsyDvSQcp4iC7ea2NhDLmgAwwya/ZXA1W0ekZ9SYaBESeY21qSnFxI
OX1e5H+Yq+AVOA6fPZGbbxUnaxYQs/guz+ydSwsaZwL0v2LcYBxIFHp7nxPq4dPg
WmpFgDC6rG002d6yTHsqdTHDzSG41VP4E1PxPYUo1w7NBebn2CynLCwKjkLZzcYv
HKazZbY7jnjyXiIhtGQ+3P4jaVk8QiMhRcxRyvW7cvMGY/aiK7mRoJhknTdBDVPq
exJcSecpyzjd7AEqjFK2TTuRhWoFna96RHaT1AMSIgPIHvHvZfXeLi7tmRwKfXmz
QGpvCJ2fbI7dUyJFYiGtxco=
-----END CERTIFICATE-----
