Certificate:
    Data:
        Version: 3 (0x2)
        Serial Number:
            4b:e3:db:20:e2:d0:51:96:fa:e7:06:bd:54:d4:81:95:d1:6f:3d:19
        Signature Algorithm: sha256WithRSAEncryption
        Issuer: C=FR, ST=Some-State, O=INSA, CN=ca.fr/emailAddress=tata@tata.fr
        Validity
            Not Before: Feb 27 16:00:17 2022 GMT
            Not After : Feb 27 16:00:17 2023 GMT
        Subject: C=FR, ST=Some-State, O=Internet Widgits Pty Ltd, CN=server.host/emailAddress=tata@tata.fr
        Subject Public Key Info:
            Public Key Algorithm: rsaEncryption
                RSA Public-Key: (2048 bit)
                Modulus:
                    00:bd:40:88:30:93:d3:93:77:74:0f:9f:e0:a5:4f:
                    9c:1e:70:37:bc:68:46:66:d4:b0:ee:9d:d6:e5:e1:
                    34:74:64:68:7e:30:06:52:77:51:3a:2c:7d:24:ae:
                    a7:5b:9e:0f:3c:1b:96:00:42:85:83:5e:24:ab:8b:
                    5f:64:de:e4:af:ab:ef:58:ec:31:d1:57:ab:35:0f:
                    49:fa:6d:eb:0d:f1:5c:0a:a0:06:96:89:8c:bf:68:
                    32:f6:33:fe:a0:2a:7d:0b:d2:b0:a4:9b:7a:58:66:
                    8e:b3:ed:fc:f1:14:94:bb:54:f0:7b:f4:13:02:99:
                    5d:9e:04:2c:cd:8c:73:53:0a:77:7b:c5:f7:00:4d:
                    aa:a2:b0:5d:da:54:3b:ff:a0:c7:cc:23:35:c9:c0:
                    c8:c9:f8:bd:98:ce:6e:9a:9a:a2:e1:b2:ba:0f:26:
                    d3:2a:59:5e:62:62:f1:c0:62:bc:aa:64:52:78:2a:
                    36:af:31:7e:4a:83:16:4c:c5:ed:9d:1b:0c:f6:9c:
                    67:ed:f0:a7:11:f8:96:38:a1:24:1a:58:cc:29:ef:
                    d2:03:f8:e5:29:ec:3a:5c:6a:a8:a7:ab:40:b3:c6:
                    36:e4:df:7f:2f:8d:ef:8e:19:78:0c:a5:7d:f1:94:
                    3b:11:63:bb:f8:2e:d0:52:ee:23:e4:0c:ab:ae:78:
                    b5:d9
                Exponent: 65537 (0x10001)
        X509v3 extensions:
            X509v3 Basic Constraints: 
                CA:FALSE
            Netscape Comment: 
                OpenSSL Generated Certificate
            X509v3 Subject Key Identifier: 
                35:84:13:2F:8C:73:ED:9C:02:99:CE:3F:C5:D7:ED:A0:6D:58:9A:6C
            X509v3 Authority Key Identifier: 
                keyid:C8:A3:D3:9A:8B:1C:A4:03:B8:58:D9:31:73:60:E5:DA:0A:83:DC:71

    Signature Algorithm: sha256WithRSAEncryption
         71:3d:f4:da:b6:65:47:f7:97:27:1e:f7:d4:56:92:91:8a:ac:
         a9:bf:0a:8c:01:56:e1:3e:db:de:93:60:de:43:61:75:ce:ef:
         aa:cb:4f:7e:57:71:59:29:f6:ea:fd:6e:49:ec:8f:83:f6:19:
         57:f6:1f:e0:df:21:16:70:33:7d:eb:05:94:b0:7c:66:68:e1:
         dc:11:3d:88:dd:03:99:55:92:57:85:2a:07:a2:7f:cc:2c:79:
         78:a7:71:44:95:42:d6:c4:c0:ed:ee:16:b0:8f:b9:a0:60:7b:
         d9:75:43:bf:58:ff:2d:11:4f:c8:81:99:54:d9:63:2a:5e:44:
         a5:b3:68:d7:01:2d:da:73:df:4f:e2:aa:87:41:d3:57:0f:03:
         8b:e6:8e:f6:6d:1c:5c:c6:de:9f:d6:5c:35:d3:43:8e:7f:be:
         63:54:93:bf:8f:68:37:8c:8c:d8:94:96:fb:4d:35:6a:7f:14:
         dd:d5:19:aa:ee:5c:dd:b2:12:89:47:42:64:39:9f:13:21:81:
         83:b0:1c:10:42:5c:55:42:d5:2f:3c:d1:24:51:5c:7a:4a:0c:
         7c:0a:65:68:9c:af:3b:10:d0:53:31:4d:92:c0:93:29:35:b4:
         80:cd:37:fc:61:a9:48:3f:23:b5:d3:f3:8f:05:d7:0a:3f:11:
         2c:1a:7b:98
-----BEGIN CERTIFICATE-----
MIID3zCCAsegAwIBAgIUS+PbIOLQUZb65wa9VNSBldFvPRkwDQYJKoZIhvcNAQEL
BQAwXjELMAkGA1UEBhMCRlIxEzARBgNVBAgMClNvbWUtU3RhdGUxDTALBgNVBAoM
BElOU0ExDjAMBgNVBAMMBWNhLmZyMRswGQYJKoZIhvcNAQkBFgx0YXRhQHRhdGEu
ZnIwHhcNMjIwMjI3MTYwMDE3WhcNMjMwMjI3MTYwMDE3WjB4MQswCQYDVQQGEwJG
UjETMBEGA1UECAwKU29tZS1TdGF0ZTEhMB8GA1UECgwYSW50ZXJuZXQgV2lkZ2l0
cyBQdHkgTHRkMRQwEgYDVQQDDAtzZXJ2ZXIuaG9zdDEbMBkGCSqGSIb3DQEJARYM
dGF0YUB0YXRhLmZyMIIBIjANBgkqhkiG9w0BAQEFAAOCAQ8AMIIBCgKCAQEAvUCI
MJPTk3d0D5/gpU+cHnA3vGhGZtSw7p3W5eE0dGRofjAGUndROix9JK6nW54PPBuW
AEKFg14kq4tfZN7kr6vvWOwx0VerNQ9J+m3rDfFcCqAGlomMv2gy9jP+oCp9C9Kw
pJt6WGaOs+388RSUu1Twe/QTApldngQszYxzUwp3e8X3AE2qorBd2lQ7/6DHzCM1
ycDIyfi9mM5umpqi4bK6DybTKlleYmLxwGK8qmRSeCo2rzF+SoMWTMXtnRsM9pxn
7fCnEfiWOKEkGljMKe/SA/jlKew6XGqop6tAs8Y25N9/L43vjhl4DKV98ZQ7EWO7
+C7QUu4j5Ayrrni12QIDAQABo3sweTAJBgNVHRMEAjAAMCwGCWCGSAGG+EIBDQQf
Fh1PcGVuU1NMIEdlbmVyYXRlZCBDZXJ0aWZpY2F0ZTAdBgNVHQ4EFgQUNYQTL4xz
7ZwCmc4/xdftoG1YmmwwHwYDVR0jBBgwFoAUyKPTmoscpAO4WNkxc2Dl2gqD3HEw
DQYJKoZIhvcNAQELBQADggEBAHE99Nq2ZUf3lyce99RWkpGKrKm/CowBVuE+296T
YN5DYXXO76rLT35XcVkp9ur9bknsj4P2GVf2H+DfIRZwM33rBZSwfGZo4dwRPYjd
A5lVkleFKgeif8wseXincUSVQtbEwO3uFrCPuaBge9l1Q79Y/y0RT8iBmVTZYype
RKWzaNcBLdpz30/iqodB01cPA4vmjvZtHFzG3p/WXDXTQ45/vmNUk7+PaDeMjNiU
lvtNNWp/FN3VGaruXN2yEolHQmQ5nxMhgYOwHBBCXFVC1S880SRRXHpKDHwKZWic
rzsQ0FMxTZLAkyk1tIDNN/xhqUg/I7XT848F1wo/ESwae5g=
-----END CERTIFICATE-----
