Certificate:
    Data:
        Version: 3 (0x2)
        Serial Number:
            4b:e3:db:20:e2:d0:51:96:fa:e7:06:bd:54:d4:81:95:d1:6f:3d:18
        Signature Algorithm: sha256WithRSAEncryption
        Issuer: C=FR, ST=Some-State, O=INSA, CN=ca.fr/emailAddress=tata@tata.fr
        Validity
            Not Before: Feb 27 15:59:22 2022 GMT
            Not After : Feb 27 15:59:22 2023 GMT
        Subject: C=FR, ST=Some-State, O=Internet Widgits Pty Ltd, CN=client.host/emailAddress=tata@tata.fr
        Subject Public Key Info:
            Public Key Algorithm: rsaEncryption
                RSA Public-Key: (2048 bit)
                Modulus:
                    00:dd:7e:c5:32:05:83:6b:4d:01:f5:dd:0d:08:e7:
                    85:ef:8a:2e:01:1a:7a:6f:53:d4:33:27:be:31:9c:
                    b3:24:f1:38:f3:d2:10:cb:3f:83:73:5c:9d:1b:a4:
                    4f:f0:80:76:0e:f4:97:83:07:27:40:a5:c3:78:52:
                    5c:86:c5:50:e2:83:18:28:ce:c7:58:f4:52:c6:b5:
                    0c:17:05:37:00:05:68:dd:ba:5e:44:d3:09:a7:56:
                    10:33:a2:f5:e3:ba:85:04:be:e9:4f:22:a8:fd:8d:
                    ed:fe:54:5b:d9:b8:1b:14:a3:4a:e3:22:44:0c:d0:
                    1e:6a:21:1d:1d:88:66:69:07:27:65:3b:e7:6a:d7:
                    b4:93:d6:e5:d7:62:6e:91:ae:03:ac:6c:13:fb:8a:
                    f5:21:8c:e1:06:70:24:27:84:cd:01:e4:b6:eb:8a:
                    04:5a:bb:26:19:d2:1d:23:24:5f:a5:b5:bb:a4:d1:
                    89:ac:f3:8d:e3:d7:8e:d8:7f:59:56:66:46:5a:7e:
                    38:f3:87:f5:cb:63:97:a4:a8:30:ab:57:03:01:53:
                    0f:d5:bd:cb:79:84:ef:e9:e7:0d:77:2d:c9:b8:77:
                    c9:2b:64:43:57:9c:8a:79:4f:91:10:44:cf:d9:89:
                    60:61:b0:89:a7:73:d1:58:97:d6:2c:38:84:91:12:
                    da:07
                Exponent: 65537 (0x10001)
        X509v3 extensions:
            X509v3 Basic Constraints: 
                CA:FALSE
            Netscape Comment: 
                OpenSSL Generated Certificate
            X509v3 Subject Key Identifier: 
                49:D8:56:B0:C2:7D:7E:B6:04:39:F0:20:9D:22:58:7B:E8:99:D3:EE
            X509v3 Authority Key Identifier: 
                keyid:C8:A3:D3:9A:8B:1C:A4:03:B8:58:D9:31:73:60:E5:DA:0A:83:DC:71

    Signature Algorithm: sha256WithRSAEncryption
         1d:f4:01:66:14:50:86:3b:d8:af:35:44:ec:63:bc:78:9c:bd:
         66:52:7a:8f:c0:70:1c:3e:d5:bb:59:64:f3:16:4e:99:09:3f:
         dd:13:c7:0b:42:7b:71:b3:32:96:ca:cf:fa:57:ac:73:84:37:
         c3:0e:49:84:2a:4c:bb:79:7d:d7:ee:32:86:3e:f7:4c:62:70:
         da:9d:9b:8b:20:5d:3c:1e:b4:a6:74:b6:f0:a6:d5:5d:35:c7:
         f7:36:5d:9b:a9:b1:33:17:ee:a7:65:0c:61:99:92:9f:02:88:
         15:97:7d:08:d0:89:42:46:34:42:43:9d:b8:c9:d9:98:d3:b7:
         e9:32:c3:d6:61:db:16:26:f5:57:a1:a6:85:0e:6f:46:7c:6f:
         1d:4d:7d:66:d1:6a:ce:5f:5e:ef:ad:2e:be:e6:f6:83:43:0d:
         a5:a6:b4:24:22:45:2c:ce:ad:a8:17:84:a0:8b:08:ab:6c:f2:
         a4:a7:c3:b6:6a:1f:3a:bb:e9:94:0a:08:fb:80:20:17:ef:93:
         ec:1e:b3:fc:25:ab:45:b0:74:6c:a3:86:c8:0d:b2:c4:9c:4f:
         6f:e3:62:c7:6a:60:ca:5b:21:2d:1c:36:3d:78:33:6a:de:f3:
         8a:8b:1b:60:04:92:03:6a:c8:e3:06:4d:8d:ea:c4:3e:d2:aa:
         ad:86:9b:39
-----BEGIN CERTIFICATE-----
MIID3zCCAsegAwIBAgIUS+PbIOLQUZb65wa9VNSBldFvPRgwDQYJKoZIhvcNAQEL
BQAwXjELMAkGA1UEBhMCRlIxEzARBgNVBAgMClNvbWUtU3RhdGUxDTALBgNVBAoM
BElOU0ExDjAMBgNVBAMMBWNhLmZyMRswGQYJKoZIhvcNAQkBFgx0YXRhQHRhdGEu
ZnIwHhcNMjIwMjI3MTU1OTIyWhcNMjMwMjI3MTU1OTIyWjB4MQswCQYDVQQGEwJG
UjETMBEGA1UECAwKU29tZS1TdGF0ZTEhMB8GA1UECgwYSW50ZXJuZXQgV2lkZ2l0
cyBQdHkgTHRkMRQwEgYDVQQDDAtjbGllbnQuaG9zdDEbMBkGCSqGSIb3DQEJARYM
dGF0YUB0YXRhLmZyMIIBIjANBgkqhkiG9w0BAQEFAAOCAQ8AMIIBCgKCAQEA3X7F
MgWDa00B9d0NCOeF74ouARp6b1PUMye+MZyzJPE489IQyz+Dc1ydG6RP8IB2DvSX
gwcnQKXDeFJchsVQ4oMYKM7HWPRSxrUMFwU3AAVo3bpeRNMJp1YQM6L147qFBL7p
TyKo/Y3t/lRb2bgbFKNK4yJEDNAeaiEdHYhmaQcnZTvnate0k9bl12Juka4DrGwT
+4r1IYzhBnAkJ4TNAeS264oEWrsmGdIdIyRfpbW7pNGJrPON49eO2H9ZVmZGWn44
84f1y2OXpKgwq1cDAVMP1b3LeYTv6ecNdy3JuHfJK2RDV5yKeU+REETP2YlgYbCJ
p3PRWJfWLDiEkRLaBwIDAQABo3sweTAJBgNVHRMEAjAAMCwGCWCGSAGG+EIBDQQf
Fh1PcGVuU1NMIEdlbmVyYXRlZCBDZXJ0aWZpY2F0ZTAdBgNVHQ4EFgQUSdhWsMJ9
frYEOfAgnSJYe+iZ0+4wHwYDVR0jBBgwFoAUyKPTmoscpAO4WNkxc2Dl2gqD3HEw
DQYJKoZIhvcNAQELBQADggEBAB30AWYUUIY72K81ROxjvHicvWZSeo/AcBw+1btZ
ZPMWTpkJP90TxwtCe3GzMpbKz/pXrHOEN8MOSYQqTLt5fdfuMoY+90xicNqdm4sg
XTwetKZ0tvCm1V01x/c2XZupsTMX7qdlDGGZkp8CiBWXfQjQiUJGNEJDnbjJ2ZjT
t+kyw9Zh2xYm9VehpoUOb0Z8bx1NfWbRas5fXu+tLr7m9oNDDaWmtCQiRSzOragX
hKCLCKts8qSnw7ZqHzq76ZQKCPuAIBfvk+wes/wlq0WwdGyjhsgNssScT2/jYsdq
YMpbIS0cNj14M2re84qLG2AEkgNqyOMGTY3qxD7Sqq2Gmzk=
-----END CERTIFICATE-----
