Certificate:
    Data:
        Version: 3 (0x2)
        Serial Number:
            4b:e3:db:20:e2:d0:51:96:fa:e7:06:bd:54:d4:81:95:d1:6f:3d:1e
        Signature Algorithm: sha256WithRSAEncryption
        Issuer: C=FR, ST=Some-State, O=INSA, CN=ca.fr/emailAddress=tata@tata.fr
        Validity
            Not Before: Mar  4 13:07:25 2022 GMT
            Not After : Mar  4 13:07:25 2023 GMT
        Subject: C=FR, ST=Occitanie, L=Toulouse, O=XXXX, OU=ven. 04 mars 2022 14:07:16 CET, CN=hello@dmolina.fr/emailAddress=tata@tata.fr
        Subject Public Key Info:
            Public Key Algorithm: rsaEncryption
                RSA Public-Key: (2048 bit)
                Modulus:
                    00:e2:ee:19:d1:f7:90:d7:ee:b3:04:59:1e:82:c6:
                    0e:52:10:e0:13:fb:ba:e1:c3:64:76:55:29:3f:8d:
                    c5:5c:b8:16:af:2b:62:ce:83:95:ba:15:f8:eb:32:
                    d1:fe:9b:cd:96:8d:8b:06:99:3b:a3:21:55:90:18:
                    5d:99:8f:99:9f:85:07:59:30:be:c1:f2:89:a0:39:
                    0e:b5:5f:dc:a6:5a:f8:06:46:a7:30:52:2f:55:d8:
                    08:00:72:cc:f4:0a:a6:ad:08:72:e2:ef:ce:3f:34:
                    ed:05:c0:03:67:b5:a9:76:d9:b2:a0:4b:8a:fa:42:
                    71:d7:29:18:ec:ed:48:54:1d:2e:34:f5:f9:be:60:
                    c7:d8:a7:c8:48:53:6c:e1:2d:e0:4a:9d:af:6b:00:
                    25:88:b9:00:d3:17:03:7a:ba:69:1a:1c:eb:1c:66:
                    8f:af:68:2d:dc:de:28:c4:f9:a7:05:ec:7b:04:a3:
                    35:12:1e:07:f9:a7:48:ef:35:a1:cb:32:bb:db:90:
                    54:92:f3:df:f5:35:7d:c8:cc:b9:17:13:ca:28:61:
                    5d:40:bb:ee:85:38:5e:94:12:14:43:42:fd:9b:5b:
                    e9:c5:98:ed:52:b8:5d:1b:4f:74:c9:fa:73:ed:8a:
                    fc:85:53:a1:dc:e3:92:53:8f:ca:d0:7e:a7:94:3a:
                    04:03
                Exponent: 65537 (0x10001)
        X509v3 extensions:
            X509v3 Basic Constraints: 
                CA:FALSE
            Netscape Comment: 
                OpenSSL Generated Certificate
            X509v3 Subject Key Identifier: 
                78:2E:35:28:D1:2F:66:E4:70:B3:7B:97:DB:69:80:AA:35:27:78:AB
            X509v3 Authority Key Identifier: 
                keyid:C8:A3:D3:9A:8B:1C:A4:03:B8:58:D9:31:73:60:E5:DA:0A:83:DC:71

    Signature Algorithm: sha256WithRSAEncryption
         52:00:3b:c3:24:e5:11:15:73:7b:5d:9e:c5:56:64:1b:c2:d5:
         67:2a:fe:83:ac:b7:41:53:11:51:aa:e1:c5:37:f6:7b:bd:da:
         29:69:08:af:22:ab:7f:fb:cc:47:35:6f:6b:74:bd:85:78:e1:
         5f:f6:a5:71:28:6b:e8:28:bb:80:23:91:af:16:4d:cb:b3:14:
         cf:0f:7f:53:b5:b2:3f:c0:36:22:31:6d:39:69:12:4b:93:4e:
         a8:48:7d:9f:d6:f2:12:a6:2d:85:6e:33:92:c7:62:03:87:26:
         b5:79:60:2a:c2:3a:ee:bf:0d:71:79:dc:db:53:19:3c:50:a2:
         06:bc:c2:2a:2c:f0:75:79:d4:aa:98:cd:f7:8a:9f:72:5a:75:
         2b:f7:3c:c1:44:64:73:e6:c8:f6:dd:18:82:60:a5:33:3c:47:
         bd:ba:f4:65:02:54:66:eb:b0:40:43:b4:8e:66:a6:37:06:a4:
         01:69:25:8e:2c:9c:74:5d:10:e6:74:8b:a5:6b:7e:e5:28:a0:
         55:08:2c:14:2d:55:47:a9:8f:05:73:db:9b:05:aa:96:ba:79:
         e6:96:67:69:26:2f:fb:3b:bc:88:9d:1b:f9:e6:83:cf:7b:25:
         97:00:24:ee:42:17:6e:88:3b:9d:70:a4:d5:c4:fb:52:31:aa:
         f1:0b:ca:35
-----BEGIN CERTIFICATE-----
MIIEDDCCAvSgAwIBAgIUS+PbIOLQUZb65wa9VNSBldFvPR4wDQYJKoZIhvcNAQEL
BQAwXjELMAkGA1UEBhMCRlIxEzARBgNVBAgMClNvbWUtU3RhdGUxDTALBgNVBAoM
BElOU0ExDjAMBgNVBAMMBWNhLmZyMRswGQYJKoZIhvcNAQkBFgx0YXRhQHRhdGEu
ZnIwHhcNMjIwMzA0MTMwNzI1WhcNMjMwMzA0MTMwNzI1WjCBpDELMAkGA1UEBhMC
RlIxEjAQBgNVBAgMCU9jY2l0YW5pZTERMA8GA1UEBwwIVG91bG91c2UxDTALBgNV
BAoMBFhYWFgxJzAlBgNVBAsMHnZlbi4gMDQgbWFycyAyMDIyIDE0OjA3OjE2IENF
VDEZMBcGA1UEAwwQaGVsbG9AZG1vbGluYS5mcjEbMBkGCSqGSIb3DQEJARYMdGF0
YUB0YXRhLmZyMIIBIjANBgkqhkiG9w0BAQEFAAOCAQ8AMIIBCgKCAQEA4u4Z0feQ
1+6zBFkegsYOUhDgE/u64cNkdlUpP43FXLgWrytizoOVuhX46zLR/pvNlo2LBpk7
oyFVkBhdmY+Zn4UHWTC+wfKJoDkOtV/cplr4BkanMFIvVdgIAHLM9AqmrQhy4u/O
PzTtBcADZ7WpdtmyoEuK+kJx1ykY7O1IVB0uNPX5vmDH2KfISFNs4S3gSp2vawAl
iLkA0xcDerppGhzrHGaPr2gt3N4oxPmnBex7BKM1Eh4H+adI7zWhyzK725BUkvPf
9TV9yMy5FxPKKGFdQLvuhThelBIUQ0L9m1vpxZjtUrhdG090yfpz7Yr8hVOh3OOS
U4/K0H6nlDoEAwIDAQABo3sweTAJBgNVHRMEAjAAMCwGCWCGSAGG+EIBDQQfFh1P
cGVuU1NMIEdlbmVyYXRlZCBDZXJ0aWZpY2F0ZTAdBgNVHQ4EFgQUeC41KNEvZuRw
s3uX22mAqjUneKswHwYDVR0jBBgwFoAUyKPTmoscpAO4WNkxc2Dl2gqD3HEwDQYJ
KoZIhvcNAQELBQADggEBAFIAO8Mk5REVc3tdnsVWZBvC1Wcq/oOst0FTEVGq4cU3
9nu92ilpCK8iq3/7zEc1b2t0vYV44V/2pXEoa+gou4Ajka8WTcuzFM8Pf1O1sj/A
NiIxbTlpEkuTTqhIfZ/W8hKmLYVuM5LHYgOHJrV5YCrCOu6/DXF53NtTGTxQoga8
wios8HV51KqYzfeKn3JadSv3PMFEZHPmyPbdGIJgpTM8R7269GUCVGbrsEBDtI5m
pjcGpAFpJY4snHRdEOZ0i6VrfuUooFUILBQtVUepjwVz25sFqpa6eeaWZ2kmL/s7
vIidG/nmg897JZcAJO5CF26IO51wpNXE+1IxqvELyjU=
-----END CERTIFICATE-----
