Certificate:
    Data:
        Version: 3 (0x2)
        Serial Number:
            4b:e3:db:20:e2:d0:51:96:fa:e7:06:bd:54:d4:81:95:d1:6f:3d:1f
        Signature Algorithm: sha256WithRSAEncryption
        Issuer: C=FR, ST=Some-State, O=INSA, CN=ca.fr/emailAddress=tata@tata.fr
        Validity
            Not Before: Mar  4 18:07:51 2022 GMT
            Not After : Mar  4 18:07:51 2023 GMT
        Subject: C=FR, ST=Occitanie, L=Toulouse, O=XXXX, OU=ven. 04 mars 2022 19:07:49 CET, CN=maud@molina.fr/emailAddress=tata@tata.fr
        Subject Public Key Info:
            Public Key Algorithm: rsaEncryption
                RSA Public-Key: (2048 bit)
                Modulus:
                    00:dc:da:74:fd:53:01:65:cc:b0:ba:ca:dc:fb:78:
                    d3:2e:e7:75:4b:3d:da:a0:fc:db:0e:f9:aa:de:5e:
                    73:42:4a:25:5b:da:88:43:84:1b:e1:c2:f0:47:5c:
                    14:d6:c8:40:50:66:ab:98:83:0d:0f:df:7d:10:88:
                    d0:79:55:6f:fa:01:0d:2a:bd:37:db:c2:55:51:58:
                    5b:64:a1:d7:a0:75:37:90:48:fd:99:fe:61:b8:2b:
                    31:2b:fc:e0:ce:59:45:75:e9:5c:05:0b:90:1f:ec:
                    0b:28:f2:90:fe:32:4d:d1:79:11:68:79:9e:38:59:
                    a1:97:3e:78:e9:80:21:0c:e0:21:a9:73:1f:4d:f7:
                    2b:53:4f:66:7a:5c:f0:7e:42:94:09:84:cd:a4:6b:
                    8a:6a:3d:21:35:4b:c3:ba:69:ea:9e:64:d0:af:44:
                    8f:f5:be:e8:5d:8b:f8:eb:52:f8:11:dc:6d:bc:64:
                    9f:5d:f9:31:bd:bf:a9:b0:14:f9:8f:92:aa:c3:33:
                    87:28:d4:5f:54:62:12:42:ff:20:8a:95:63:48:3d:
                    e0:09:41:1b:1c:66:79:8e:c3:f3:3e:78:ad:de:c4:
                    20:c4:bd:9a:c1:92:3d:1c:a6:f8:c6:e5:0e:0d:6c:
                    3a:b1:fd:c0:09:1c:1a:c2:b4:32:8f:38:6b:2b:72:
                    b2:b7
                Exponent: 65537 (0x10001)
        X509v3 extensions:
            X509v3 Basic Constraints: 
                CA:FALSE
            Netscape Comment: 
                OpenSSL Generated Certificate
            X509v3 Subject Key Identifier: 
                C7:FA:E2:92:46:03:DC:8D:01:C1:8F:A6:3C:E2:6A:36:8C:E6:7C:CA
            X509v3 Authority Key Identifier: 
                keyid:C8:A3:D3:9A:8B:1C:A4:03:B8:58:D9:31:73:60:E5:DA:0A:83:DC:71

    Signature Algorithm: sha256WithRSAEncryption
         89:c2:d4:cc:da:ca:e1:39:49:2b:94:74:c9:87:99:a9:70:ce:
         0f:86:a5:39:ac:d2:1a:74:75:80:ab:ed:a4:85:c5:ea:02:e3:
         d7:75:3b:ee:62:c6:54:3b:d3:93:8f:54:21:44:83:25:59:32:
         9e:11:50:14:9e:76:e3:95:6e:ff:c0:b3:8e:4c:f2:9d:60:b8:
         66:9a:c7:d0:2a:7d:17:b4:c4:59:42:be:8c:cf:78:7a:90:46:
         4b:79:70:c3:c9:9a:29:15:4e:c9:1d:40:51:08:46:a1:20:fa:
         09:68:e8:0a:d0:ed:6d:63:ce:6a:d8:ed:d4:50:a7:e7:d4:f9:
         d9:51:4a:46:94:44:76:8b:20:d4:7d:d2:87:91:99:96:44:8e:
         e2:fe:9e:2f:60:e6:f8:24:9f:45:3b:d9:0a:39:cc:4b:93:95:
         03:fc:82:5d:17:f5:48:ac:dd:bf:8f:96:7a:0e:b9:bb:5a:0d:
         9a:a1:ef:8d:b0:c2:08:d4:af:e9:b0:12:19:f5:28:9c:97:3f:
         0c:6e:14:1f:7f:b9:b0:ae:31:fb:bf:be:bb:80:9d:47:6a:50:
         d8:51:83:b6:7a:ad:84:4c:3c:b4:eb:a3:1b:8b:52:1c:66:67:
         61:5e:ec:46:6d:2f:f0:a8:c1:53:d7:6c:74:c0:58:a9:d7:8a:
         ab:55:12:b4
-----BEGIN CERTIFICATE-----
MIIECjCCAvKgAwIBAgIUS+PbIOLQUZb65wa9VNSBldFvPR8wDQYJKoZIhvcNAQEL
BQAwXjELMAkGA1UEBhMCRlIxEzARBgNVBAgMClNvbWUtU3RhdGUxDTALBgNVBAoM
BElOU0ExDjAMBgNVBAMMBWNhLmZyMRswGQYJKoZIhvcNAQkBFgx0YXRhQHRhdGEu
ZnIwHhcNMjIwMzA0MTgwNzUxWhcNMjMwMzA0MTgwNzUxWjCBojELMAkGA1UEBhMC
RlIxEjAQBgNVBAgMCU9jY2l0YW5pZTERMA8GA1UEBwwIVG91bG91c2UxDTALBgNV
BAoMBFhYWFgxJzAlBgNVBAsMHnZlbi4gMDQgbWFycyAyMDIyIDE5OjA3OjQ5IENF
VDEXMBUGA1UEAwwObWF1ZEBtb2xpbmEuZnIxGzAZBgkqhkiG9w0BCQEWDHRhdGFA
dGF0YS5mcjCCASIwDQYJKoZIhvcNAQEBBQADggEPADCCAQoCggEBANzadP1TAWXM
sLrK3Pt40y7ndUs92qD82w75qt5ec0JKJVvaiEOEG+HC8EdcFNbIQFBmq5iDDQ/f
fRCI0HlVb/oBDSq9N9vCVVFYW2Sh16B1N5BI/Zn+YbgrMSv84M5ZRXXpXAULkB/s
CyjykP4yTdF5EWh5njhZoZc+eOmAIQzgIalzH033K1NPZnpc8H5ClAmEzaRrimo9
ITVLw7pp6p5k0K9Ej/W+6F2L+OtS+BHcbbxkn135Mb2/qbAU+Y+SqsMzhyjUX1Ri
EkL/IIqVY0g94AlBGxxmeY7D8z54rd7EIMS9msGSPRym+MblDg1sOrH9wAkcGsK0
Mo84aytysrcCAwEAAaN7MHkwCQYDVR0TBAIwADAsBglghkgBhvhCAQ0EHxYdT3Bl
blNTTCBHZW5lcmF0ZWQgQ2VydGlmaWNhdGUwHQYDVR0OBBYEFMf64pJGA9yNAcGP
pjziajaM5nzKMB8GA1UdIwQYMBaAFMij05qLHKQDuFjZMXNg5doKg9xxMA0GCSqG
SIb3DQEBCwUAA4IBAQCJwtTM2srhOUkrlHTJh5mpcM4PhqU5rNIadHWAq+2khcXq
AuPXdTvuYsZUO9OTj1QhRIMlWTKeEVAUnnbjlW7/wLOOTPKdYLhmmsfQKn0XtMRZ
Qr6Mz3h6kEZLeXDDyZopFU7JHUBRCEahIPoJaOgK0O1tY85q2O3UUKfn1PnZUUpG
lER2iyDUfdKHkZmWRI7i/p4vYOb4JJ9FO9kKOcxLk5UD/IJdF/VIrN2/j5Z6Drm7
Wg2aoe+NsMII1K/psBIZ9Siclz8MbhQff7mwrjH7v767gJ1HalDYUYO2eq2ETDy0
66Mbi1IcZmdhXuxGbS/wqMFT12x0wFip14qrVRK0
-----END CERTIFICATE-----
