Certificate:
    Data:
        Version: 3 (0x2)
        Serial Number:
            4b:e3:db:20:e2:d0:51:96:fa:e7:06:bd:54:d4:81:95:d1:6f:3d:1d
        Signature Algorithm: sha256WithRSAEncryption
        Issuer: C=FR, ST=Some-State, O=INSA, CN=ca.fr/emailAddress=tata@tata.fr
        Validity
            Not Before: Mar  2 09:03:38 2022 GMT
            Not After : Mar  2 09:03:38 2023 GMT
        Subject: C=FR, ST=Occitanie, L=Toulouse, O=XXXX, OU=mer. 02 mars 2022 10:03:37 CET, CN=vincent@dmolina.fr/emailAddress=tata@tata.fr
        Subject Public Key Info:
            Public Key Algorithm: rsaEncryption
                RSA Public-Key: (2048 bit)
                Modulus:
                    00:a6:bc:15:6d:82:f5:5f:e5:43:6f:40:93:ba:31:
                    8d:63:64:10:a1:c3:04:f7:bc:07:44:fd:0d:38:42:
                    29:86:b6:79:58:69:2a:b5:88:52:71:4c:af:e9:cb:
                    f5:43:5a:ab:2c:97:cd:6d:25:47:17:41:fc:a7:f6:
                    cc:c4:27:a9:89:d4:78:d2:ee:b9:b5:fd:f5:f8:27:
                    fe:3c:ec:90:ad:5a:3b:e5:09:93:bd:67:2b:a3:a6:
                    d3:9e:3b:e0:2c:52:31:be:d4:df:c9:3b:ab:86:62:
                    58:ce:f4:2c:55:d2:e1:3a:63:7a:e1:d0:0f:00:16:
                    e1:c1:7b:02:fe:fc:4e:dc:0c:73:13:df:d2:9f:d3:
                    95:28:f4:98:d1:58:48:0c:18:b5:ce:54:22:23:e2:
                    50:95:24:aa:85:0b:99:9e:4e:01:7f:09:e3:85:3d:
                    bf:da:df:a4:86:04:fd:cc:b9:91:de:d2:40:03:4d:
                    3a:ea:2c:a9:ec:8e:b8:ff:9a:f1:26:9b:30:db:60:
                    a3:79:0a:86:dc:03:62:09:d2:08:77:63:2b:08:20:
                    61:88:f5:87:9f:c6:d3:dc:7a:2b:68:5f:ef:72:41:
                    6e:58:8d:78:d5:73:22:fb:15:3b:12:8d:cc:77:38:
                    72:d8:19:21:4b:b2:44:be:38:1f:87:f9:45:0f:0b:
                    11:ef
                Exponent: 65537 (0x10001)
        X509v3 extensions:
            X509v3 Basic Constraints: 
                CA:FALSE
            Netscape Comment: 
                OpenSSL Generated Certificate
            X509v3 Subject Key Identifier: 
                4C:D1:9C:43:A7:E9:D5:1C:9C:AB:79:21:21:79:10:EF:C5:19:82:B7
            X509v3 Authority Key Identifier: 
                keyid:C8:A3:D3:9A:8B:1C:A4:03:B8:58:D9:31:73:60:E5:DA:0A:83:DC:71

    Signature Algorithm: sha256WithRSAEncryption
         40:a2:93:ef:15:07:ca:e5:54:58:9d:43:a2:3a:5f:fb:30:f8:
         d5:74:3e:57:85:0b:28:4f:56:4a:f7:85:ab:91:a2:d3:29:fd:
         9a:d9:90:93:fa:14:56:2f:c4:d7:a7:56:cb:91:43:45:ac:79:
         8e:cd:5a:a6:42:8c:f3:8c:94:5e:ba:05:db:ac:64:0d:c8:ff:
         52:43:4b:1d:77:a0:2d:16:ea:bf:b2:7b:47:bf:19:bb:b5:3d:
         53:32:61:17:27:a9:cc:84:2b:04:c4:3a:41:9c:33:d3:5b:98:
         6b:57:e0:87:2e:c8:a2:ea:cc:43:1a:d3:da:6f:b2:c9:ff:b1:
         fc:3a:41:d8:2c:50:c5:d7:a6:a6:fd:4a:74:dd:ea:27:dd:c9:
         0c:b7:95:3d:d6:cb:4f:b4:92:83:70:f4:e0:ad:ef:a2:77:55:
         40:eb:97:35:0e:bc:62:db:bf:3e:40:33:b6:8b:0e:ca:bd:ec:
         31:b9:5a:ab:2b:88:7e:5a:40:2f:d7:c7:98:bc:46:8e:eb:83:
         a7:13:d6:7a:8c:f7:35:f5:e5:f8:03:3e:04:73:48:02:cf:5c:
         75:90:8a:b3:57:62:16:9f:0c:af:0b:af:8c:e9:34:63:e1:bc:
         5e:9a:36:11:3f:11:cc:a3:08:8d:24:18:17:8c:46:5b:4f:84:
         23:98:51:ad
-----BEGIN CERTIFICATE-----
MIIEDjCCAvagAwIBAgIUS+PbIOLQUZb65wa9VNSBldFvPR0wDQYJKoZIhvcNAQEL
BQAwXjELMAkGA1UEBhMCRlIxEzARBgNVBAgMClNvbWUtU3RhdGUxDTALBgNVBAoM
BElOU0ExDjAMBgNVBAMMBWNhLmZyMRswGQYJKoZIhvcNAQkBFgx0YXRhQHRhdGEu
ZnIwHhcNMjIwMzAyMDkwMzM4WhcNMjMwMzAyMDkwMzM4WjCBpjELMAkGA1UEBhMC
RlIxEjAQBgNVBAgMCU9jY2l0YW5pZTERMA8GA1UEBwwIVG91bG91c2UxDTALBgNV
BAoMBFhYWFgxJzAlBgNVBAsMHm1lci4gMDIgbWFycyAyMDIyIDEwOjAzOjM3IENF
VDEbMBkGA1UEAwwSdmluY2VudEBkbW9saW5hLmZyMRswGQYJKoZIhvcNAQkBFgx0
YXRhQHRhdGEuZnIwggEiMA0GCSqGSIb3DQEBAQUAA4IBDwAwggEKAoIBAQCmvBVt
gvVf5UNvQJO6MY1jZBChwwT3vAdE/Q04QimGtnlYaSq1iFJxTK/py/VDWqssl81t
JUcXQfyn9szEJ6mJ1HjS7rm1/fX4J/487JCtWjvlCZO9ZyujptOeO+AsUjG+1N/J
O6uGYljO9CxV0uE6Y3rh0A8AFuHBewL+/E7cDHMT39Kf05Uo9JjRWEgMGLXOVCIj
4lCVJKqFC5meTgF/CeOFPb/a36SGBP3MuZHe0kADTTrqLKnsjrj/mvEmmzDbYKN5
CobcA2IJ0gh3YysIIGGI9YefxtPceitoX+9yQW5YjXjVcyL7FTsSjcx3OHLYGSFL
skS+OB+H+UUPCxHvAgMBAAGjezB5MAkGA1UdEwQCMAAwLAYJYIZIAYb4QgENBB8W
HU9wZW5TU0wgR2VuZXJhdGVkIENlcnRpZmljYXRlMB0GA1UdDgQWBBRM0ZxDp+nV
HJyreSEheRDvxRmCtzAfBgNVHSMEGDAWgBTIo9OaixykA7hY2TFzYOXaCoPccTAN
BgkqhkiG9w0BAQsFAAOCAQEAQKKT7xUHyuVUWJ1Dojpf+zD41XQ+V4ULKE9WSveF
q5Gi0yn9mtmQk/oUVi/E16dWy5FDRax5js1apkKM84yUXroF26xkDcj/UkNLHXeg
LRbqv7J7R78Zu7U9UzJhFyepzIQrBMQ6QZwz01uYa1fghy7IourMQxrT2m+yyf+x
/DpB2CxQxdempv1KdN3qJ93JDLeVPdbLT7SSg3D04K3vondVQOuXNQ68Ytu/PkAz
tosOyr3sMblaqyuIflpAL9fHmLxGjuuDpxPWeoz3NfXl+AM+BHNIAs9cdZCKs1di
Fp8MrwuvjOk0Y+G8Xpo2ET8RzKMIjSQYF4xGW0+EI5hRrQ==
-----END CERTIFICATE-----
