Certificate:
    Data:
        Version: 3 (0x2)
        Serial Number:
            4b:e3:db:20:e2:d0:51:96:fa:e7:06:bd:54:d4:81:95:d1:6f:3d:1c
        Signature Algorithm: sha256WithRSAEncryption
        Issuer: C=FR, ST=Some-State, O=INSA, CN=ca.fr/emailAddress=tata@tata.fr
        Validity
            Not Before: Mar  2 08:57:35 2022 GMT
            Not After : Mar  2 08:57:35 2023 GMT
        Subject: C=FR, ST=Occitanie, L=Toulouse, O=XXXX, OU=XXXX, CN=vincent@dmolina.fr/emailAddress=tata@tata.fr
        Subject Public Key Info:
            Public Key Algorithm: rsaEncryption
                RSA Public-Key: (2048 bit)
                Modulus:
                    00:9f:46:53:46:a7:83:16:09:da:c5:34:7e:cc:32:
                    76:a3:6c:bb:8a:42:c4:9d:37:ed:17:fb:8d:40:3d:
                    7d:00:7d:7f:f7:5f:79:fb:f5:46:2f:b7:4a:f7:5d:
                    38:5d:eb:b7:39:1d:82:68:8a:dd:cd:ad:f3:8e:e3:
                    d4:fb:db:b2:e1:d1:ec:3b:7e:fc:72:92:0f:a5:fb:
                    a4:6d:93:6a:ea:81:9f:a0:7f:0d:8a:d0:3b:fb:38:
                    c5:5b:85:45:1e:7b:51:4c:fd:35:b0:22:ca:ef:0f:
                    44:fc:db:12:c3:a6:cf:c6:75:1f:55:dd:42:a3:77:
                    00:c1:7a:79:a4:f3:d2:6b:93:9a:58:d2:17:35:28:
                    b4:ca:d5:d8:60:f3:64:d5:b7:f9:8c:7a:bd:12:9b:
                    94:dc:26:ad:06:95:51:ba:59:28:7d:4f:76:51:cf:
                    83:cb:bc:f5:81:46:cc:14:ac:8a:5a:aa:fe:d4:34:
                    47:07:55:bf:0b:46:05:63:29:49:80:d3:0a:91:83:
                    78:79:3e:3a:87:c4:3c:b7:f0:f9:fe:3f:96:61:47:
                    69:59:a1:bb:47:19:c1:3c:a9:02:7e:99:cb:28:ad:
                    01:e0:cc:45:91:43:e7:3e:90:62:67:a4:0b:28:c9:
                    c2:1c:86:e0:ae:ba:50:2d:77:fb:94:a3:42:e3:64:
                    13:fb
                Exponent: 65537 (0x10001)
        X509v3 extensions:
            X509v3 Basic Constraints: 
                CA:FALSE
            Netscape Comment: 
                OpenSSL Generated Certificate
            X509v3 Subject Key Identifier: 
                97:0E:7D:95:B7:41:D2:C8:66:D5:CE:CF:6D:B3:8B:97:B8:96:44:34
            X509v3 Authority Key Identifier: 
                keyid:C8:A3:D3:9A:8B:1C:A4:03:B8:58:D9:31:73:60:E5:DA:0A:83:DC:71

    Signature Algorithm: sha256WithRSAEncryption
         8c:86:c8:fd:11:82:5d:16:6c:fe:09:a8:f1:d6:96:a8:9c:e8:
         1f:95:e5:f9:73:72:5c:ed:d3:dd:c0:2a:ee:41:a8:92:15:ef:
         01:53:e9:14:46:59:43:d1:58:39:64:d2:61:6b:de:2b:4c:92:
         00:40:89:6e:ef:f3:48:d9:69:13:40:83:76:f6:cc:e5:31:f0:
         2a:89:70:06:2c:bc:1b:06:ed:73:0c:99:ca:74:1f:99:8f:be:
         94:bc:f0:70:a4:b7:ee:f9:23:31:01:77:49:00:f6:7c:ef:50:
         bf:07:47:5d:5d:44:48:99:54:40:84:25:c1:3a:44:ef:49:fe:
         3d:89:88:87:42:34:cc:04:69:5d:28:c9:25:06:f5:62:ef:83:
         2d:b7:ec:07:df:b1:f8:58:33:f7:1a:25:80:76:f5:de:64:fa:
         77:0f:99:00:a8:25:35:87:c1:a1:f7:28:f1:62:d8:f7:04:4f:
         eb:fc:80:42:a3:86:8a:0c:1a:ac:9e:9c:be:e7:84:5f:4b:31:
         f6:dd:ab:57:4b:a9:46:75:7d:b3:43:7f:e1:5d:49:07:7d:77:
         93:bb:fd:1f:bc:ee:05:40:3e:65:c6:ff:a6:51:58:5d:72:b3:
         cd:3f:58:2b:01:72:73:d5:83:77:6d:dc:b8:70:b5:d7:60:57:
         ca:7a:eb:09
-----BEGIN CERTIFICATE-----
MIID9DCCAtygAwIBAgIUS+PbIOLQUZb65wa9VNSBldFvPRwwDQYJKoZIhvcNAQEL
BQAwXjELMAkGA1UEBhMCRlIxEzARBgNVBAgMClNvbWUtU3RhdGUxDTALBgNVBAoM
BElOU0ExDjAMBgNVBAMMBWNhLmZyMRswGQYJKoZIhvcNAQkBFgx0YXRhQHRhdGEu
ZnIwHhcNMjIwMzAyMDg1NzM1WhcNMjMwMzAyMDg1NzM1WjCBjDELMAkGA1UEBhMC
RlIxEjAQBgNVBAgMCU9jY2l0YW5pZTERMA8GA1UEBwwIVG91bG91c2UxDTALBgNV
BAoMBFhYWFgxDTALBgNVBAsMBFhYWFgxGzAZBgNVBAMMEnZpbmNlbnRAZG1vbGlu
YS5mcjEbMBkGCSqGSIb3DQEJARYMdGF0YUB0YXRhLmZyMIIBIjANBgkqhkiG9w0B
AQEFAAOCAQ8AMIIBCgKCAQEAn0ZTRqeDFgnaxTR+zDJ2o2y7ikLEnTftF/uNQD19
AH1/9195+/VGL7dK9104Xeu3OR2CaIrdza3zjuPU+9uy4dHsO378cpIPpfukbZNq
6oGfoH8NitA7+zjFW4VFHntRTP01sCLK7w9E/NsSw6bPxnUfVd1Co3cAwXp5pPPS
a5OaWNIXNSi0ytXYYPNk1bf5jHq9EpuU3CatBpVRulkofU92Uc+Dy7z1gUbMFKyK
Wqr+1DRHB1W/C0YFYylJgNMKkYN4eT46h8Q8t/D5/j+WYUdpWaG7RxnBPKkCfpnL
KK0B4MxFkUPnPpBiZ6QLKMnCHIbgrrpQLXf7lKNC42QT+wIDAQABo3sweTAJBgNV
HRMEAjAAMCwGCWCGSAGG+EIBDQQfFh1PcGVuU1NMIEdlbmVyYXRlZCBDZXJ0aWZp
Y2F0ZTAdBgNVHQ4EFgQUlw59lbdB0shm1c7PbbOLl7iWRDQwHwYDVR0jBBgwFoAU
yKPTmoscpAO4WNkxc2Dl2gqD3HEwDQYJKoZIhvcNAQELBQADggEBAIyGyP0Rgl0W
bP4JqPHWlqic6B+V5flzclzt093AKu5BqJIV7wFT6RRGWUPRWDlk0mFr3itMkgBA
iW7v80jZaRNAg3b2zOUx8CqJcAYsvBsG7XMMmcp0H5mPvpS88HCkt+75IzEBd0kA
9nzvUL8HR11dREiZVECEJcE6RO9J/j2JiIdCNMwEaV0oySUG9WLvgy237AffsfhY
M/caJYB29d5k+ncPmQCoJTWHwaH3KPFi2PcET+v8gEKjhooMGqyenL7nhF9LMfbd
q1dLqUZ1fbNDf+FdSQd9d5O7/R+87gVAPmXG/6ZRWF1ys80/WCsBcnPVg3dt3Lhw
tddgV8p66wk=
-----END CERTIFICATE-----
