Certificate:
    Data:
        Version: 3 (0x2)
        Serial Number:
            4b:e3:db:20:e2:d0:51:96:fa:e7:06:bd:54:d4:81:95:d1:6f:3d:1a
        Signature Algorithm: sha256WithRSAEncryption
        Issuer: C=FR, ST=Some-State, O=INSA, CN=ca.fr/emailAddress=tata@tata.fr
        Validity
            Not Before: Feb 27 16:22:38 2022 GMT
            Not After : Feb 27 16:22:38 2023 GMT
        Subject: C=FR, ST=Some-State, O=Internet Widgits Pty Ltd, CN=elies@dmolina.fr/emailAddress=tata@tata.fr
        Subject Public Key Info:
            Public Key Algorithm: rsaEncryption
                RSA Public-Key: (2048 bit)
                Modulus:
                    00:ac:5d:a8:34:29:47:8d:43:a2:e1:78:6b:39:32:
                    43:10:31:9a:97:23:c9:27:04:bd:a0:72:f9:55:74:
                    68:da:ac:70:7b:ef:73:ac:09:5b:d9:5e:12:23:bf:
                    3e:5a:c2:78:b7:0f:83:f2:fb:21:9e:16:25:12:91:
                    b9:f0:72:29:95:ff:72:9f:73:14:5f:b2:ef:f2:3a:
                    c9:48:5d:fd:7d:56:97:04:ad:f3:32:d2:5f:a9:12:
                    20:bc:0c:dc:5d:8b:2a:7a:e9:b5:8f:f1:e7:a2:b2:
                    47:16:3e:8f:7a:a7:e4:0f:25:ff:cd:96:a5:a8:77:
                    03:9a:98:3f:a0:9c:e8:05:b7:72:64:4f:74:f7:3d:
                    f6:1e:77:b4:84:c9:22:62:89:7b:89:fa:3f:97:3a:
                    2e:9f:c2:2f:97:77:b7:9b:93:88:73:c4:e1:ed:c3:
                    68:43:f7:26:36:b1:6f:40:28:34:86:41:b6:c8:f6:
                    6f:69:6e:8e:1a:6d:91:22:65:f1:08:52:b0:ce:27:
                    46:8c:87:9a:7d:f1:85:c1:46:9e:10:56:2f:f5:03:
                    22:80:2a:6f:6b:cb:0b:a7:e1:f4:89:bf:1b:a4:c0:
                    33:e7:04:16:05:2c:14:44:23:b2:7d:ef:84:ef:6d:
                    7a:f1:ad:42:dc:c7:33:a5:ad:9e:d8:0a:b4:79:37:
                    5d:fb
                Exponent: 65537 (0x10001)
        X509v3 extensions:
            X509v3 Basic Constraints: 
                CA:FALSE
            Netscape Comment: 
                OpenSSL Generated Certificate
            X509v3 Subject Key Identifier: 
                1C:BD:16:E2:7E:AF:DA:BE:EC:7C:F2:B1:9A:D4:93:15:2D:12:61:58
            X509v3 Authority Key Identifier: 
                keyid:C8:A3:D3:9A:8B:1C:A4:03:B8:58:D9:31:73:60:E5:DA:0A:83:DC:71

    Signature Algorithm: sha256WithRSAEncryption
         6b:4d:cd:31:c3:82:7e:a9:78:41:e5:09:be:ef:b3:8c:6d:96:
         9b:37:72:ad:a9:9e:43:ec:fd:e4:2b:04:aa:9a:38:bb:65:fa:
         76:16:07:31:45:5a:9c:0b:85:c8:75:cd:3c:df:fd:d0:79:f7:
         69:0a:77:b5:5d:52:97:2b:80:cc:f7:df:0c:a9:6e:91:f1:f5:
         e5:4d:58:b2:7d:3e:99:2b:74:2b:2d:5b:e7:b3:b7:d1:9c:20:
         b3:61:f8:f7:73:dc:54:d2:90:38:29:86:76:94:85:cf:83:2b:
         97:4d:4a:89:da:b4:57:8a:1f:4c:91:7c:fa:7c:c2:79:b9:a8:
         6d:ba:24:2f:dc:17:6c:42:cf:f1:f2:df:26:51:c9:d3:83:3c:
         81:05:03:e6:3f:bb:be:5b:fd:ca:fb:ab:7e:16:ab:5f:80:4d:
         b1:e5:2b:a2:8f:61:7d:5b:84:dd:39:1c:17:25:86:39:56:36:
         1d:9d:9c:49:6a:b7:77:44:f0:52:78:4e:c0:89:63:52:6c:f9:
         7d:a5:42:c9:00:fa:99:9a:90:f9:2f:9c:27:40:be:9d:e3:f2:
         ae:67:f1:1c:02:e1:c9:7b:dc:51:82:4b:74:a7:86:30:84:8e:
         06:4f:97:f2:a0:fa:2b:6d:90:94:c5:5f:b6:d9:da:97:c5:ce:
         63:ac:f3:3c
-----BEGIN CERTIFICATE-----
MIID5DCCAsygAwIBAgIUS+PbIOLQUZb65wa9VNSBldFvPRowDQYJKoZIhvcNAQEL
BQAwXjELMAkGA1UEBhMCRlIxEzARBgNVBAgMClNvbWUtU3RhdGUxDTALBgNVBAoM
BElOU0ExDjAMBgNVBAMMBWNhLmZyMRswGQYJKoZIhvcNAQkBFgx0YXRhQHRhdGEu
ZnIwHhcNMjIwMjI3MTYyMjM4WhcNMjMwMjI3MTYyMjM4WjB9MQswCQYDVQQGEwJG
UjETMBEGA1UECAwKU29tZS1TdGF0ZTEhMB8GA1UECgwYSW50ZXJuZXQgV2lkZ2l0
cyBQdHkgTHRkMRkwFwYDVQQDDBBlbGllc0BkbW9saW5hLmZyMRswGQYJKoZIhvcN
AQkBFgx0YXRhQHRhdGEuZnIwggEiMA0GCSqGSIb3DQEBAQUAA4IBDwAwggEKAoIB
AQCsXag0KUeNQ6LheGs5MkMQMZqXI8knBL2gcvlVdGjarHB773OsCVvZXhIjvz5a
wni3D4Py+yGeFiUSkbnwcimV/3KfcxRfsu/yOslIXf19VpcErfMy0l+pEiC8DNxd
iyp66bWP8eeiskcWPo96p+QPJf/NlqWodwOamD+gnOgFt3JkT3T3PfYed7SEySJi
iXuJ+j+XOi6fwi+Xd7ebk4hzxOHtw2hD9yY2sW9AKDSGQbbI9m9pbo4abZEiZfEI
UrDOJ0aMh5p98YXBRp4QVi/1AyKAKm9rywun4fSJvxukwDPnBBYFLBREI7J974Tv
bXrxrULcxzOlrZ7YCrR5N137AgMBAAGjezB5MAkGA1UdEwQCMAAwLAYJYIZIAYb4
QgENBB8WHU9wZW5TU0wgR2VuZXJhdGVkIENlcnRpZmljYXRlMB0GA1UdDgQWBBQc
vRbifq/avux88rGa1JMVLRJhWDAfBgNVHSMEGDAWgBTIo9OaixykA7hY2TFzYOXa
CoPccTANBgkqhkiG9w0BAQsFAAOCAQEAa03NMcOCfql4QeUJvu+zjG2Wmzdyrame
Q+z95CsEqpo4u2X6dhYHMUVanAuFyHXNPN/90Hn3aQp3tV1SlyuAzPffDKlukfH1
5U1Ysn0+mSt0Ky1b57O30Zwgs2H493PcVNKQOCmGdpSFz4Mrl01Kidq0V4ofTJF8
+nzCebmobbokL9wXbELP8fLfJlHJ04M8gQUD5j+7vlv9yvurfharX4BNseUroo9h
fVuE3TkcFyWGOVY2HZ2cSWq3d0TwUnhOwIljUmz5faVCyQD6mZqQ+S+cJ0C+nePy
rmfxHALhyXvcUYJLdKeGMISOBk+X8qD6K22QlMVfttnal8XOY6zzPA==
-----END CERTIFICATE-----
