Certificate:
    Data:
        Version: 3 (0x2)
        Serial Number:
            4b:e3:db:20:e2:d0:51:96:fa:e7:06:bd:54:d4:81:95:d1:6f:3d:1b
        Signature Algorithm: sha256WithRSAEncryption
        Issuer: C=FR, ST=Some-State, O=INSA, CN=ca.fr/emailAddress=tata@tata.fr
        Validity
            Not Before: Mar  2 08:44:38 2022 GMT
            Not After : Mar  2 08:44:38 2023 GMT
        Subject: C=FR, ST=Occitanie, L=Toulouse, O=XXXX, OU=XXXX, CN=hello@hello.fr/emailAddress=tata@tata.fr
        Subject Public Key Info:
            Public Key Algorithm: rsaEncryption
                RSA Public-Key: (2048 bit)
                Modulus:
                    00:bd:92:04:a4:2b:35:05:6c:11:06:ce:5e:aa:4e:
                    41:6e:75:f4:7d:8e:08:e7:94:7a:bd:96:2c:e6:76:
                    ff:c5:d7:68:69:97:c7:0f:bf:f1:91:ae:2b:42:8b:
                    93:de:bc:50:bc:ae:ae:5f:2b:68:4c:5d:23:03:08:
                    02:cd:37:3e:f0:aa:10:17:11:db:f9:69:05:78:cb:
                    fa:80:ac:d9:f1:07:f9:77:21:db:29:54:c5:e4:7e:
                    88:e7:88:ee:8f:b1:0a:8b:c7:e8:e9:4b:76:d3:d1:
                    dd:3a:8d:18:51:1d:df:48:21:b0:af:8f:c7:e4:37:
                    2b:b9:e2:45:c9:c1:b9:a8:09:ee:ff:fd:f1:c3:82:
                    9e:a5:66:ba:36:45:fd:0d:d8:ab:06:9f:37:93:db:
                    42:22:b9:a9:7b:e3:48:6a:87:fa:79:28:48:38:1c:
                    fb:bb:99:a9:2f:09:be:05:f9:90:b5:22:7b:8a:33:
                    4e:f0:26:b5:91:fb:22:65:02:53:1e:36:26:f1:71:
                    a1:ca:be:82:b6:ff:d4:84:9b:30:eb:77:17:21:7d:
                    59:5a:64:59:05:28:40:41:fb:b2:4b:0b:29:78:a3:
                    a8:a1:71:44:ca:4c:ad:4b:44:87:ff:6e:c3:52:0f:
                    ea:93:fa:dd:7c:a8:11:fb:c2:32:e0:ce:8e:a5:0a:
                    48:99
                Exponent: 65537 (0x10001)
        X509v3 extensions:
            X509v3 Basic Constraints: 
                CA:FALSE
            Netscape Comment: 
                OpenSSL Generated Certificate
            X509v3 Subject Key Identifier: 
                FA:31:FC:8E:60:29:66:D9:22:69:DA:64:56:73:01:E5:87:BB:85:1E
            X509v3 Authority Key Identifier: 
                keyid:C8:A3:D3:9A:8B:1C:A4:03:B8:58:D9:31:73:60:E5:DA:0A:83:DC:71

    Signature Algorithm: sha256WithRSAEncryption
         7d:a6:61:bc:bf:46:75:ad:55:a8:de:61:ee:e7:7d:90:c9:a6:
         dd:50:b9:4a:86:7b:0e:f6:08:ad:4e:2b:53:79:c0:57:73:ab:
         2a:b5:0f:ba:47:69:dc:88:84:f2:da:e0:29:fc:ad:ce:56:07:
         bc:74:8b:2e:85:4d:0f:d5:0a:2b:cf:95:2a:7f:bb:69:ae:f0:
         be:14:35:c7:45:14:08:77:65:67:0a:41:da:26:f7:a9:69:7b:
         d7:44:ba:d7:cd:2f:79:09:de:47:62:87:8c:c2:c2:d4:21:4f:
         58:e1:d5:12:3f:04:3b:e7:d3:69:fa:11:c3:77:3b:e7:c8:8a:
         29:51:14:b9:8c:c1:25:68:f3:db:e1:73:2a:73:14:03:da:8a:
         c0:56:56:50:0b:ff:f3:ce:8a:81:ea:5e:71:83:46:7f:d6:54:
         b7:b6:8e:cf:a8:71:4b:72:17:fd:bb:47:0d:84:dd:3d:33:49:
         2a:34:75:76:5f:2c:4a:ff:f5:6a:11:32:de:05:f6:e7:9e:65:
         70:23:9e:3e:90:b6:b1:b8:7e:e9:88:c5:86:06:0e:ae:0c:fb:
         7e:87:0f:86:54:7d:dc:3c:d3:bb:70:11:14:c7:a9:7e:72:7a:
         96:46:84:71:fb:22:18:c3:05:9f:51:ce:1c:b1:7c:1e:38:eb:
         4f:92:c0:1f
-----BEGIN CERTIFICATE-----
MIID8DCCAtigAwIBAgIUS+PbIOLQUZb65wa9VNSBldFvPRswDQYJKoZIhvcNAQEL
BQAwXjELMAkGA1UEBhMCRlIxEzARBgNVBAgMClNvbWUtU3RhdGUxDTALBgNVBAoM
BElOU0ExDjAMBgNVBAMMBWNhLmZyMRswGQYJKoZIhvcNAQkBFgx0YXRhQHRhdGEu
ZnIwHhcNMjIwMzAyMDg0NDM4WhcNMjMwMzAyMDg0NDM4WjCBiDELMAkGA1UEBhMC
RlIxEjAQBgNVBAgMCU9jY2l0YW5pZTERMA8GA1UEBwwIVG91bG91c2UxDTALBgNV
BAoMBFhYWFgxDTALBgNVBAsMBFhYWFgxFzAVBgNVBAMMDmhlbGxvQGhlbGxvLmZy
MRswGQYJKoZIhvcNAQkBFgx0YXRhQHRhdGEuZnIwggEiMA0GCSqGSIb3DQEBAQUA
A4IBDwAwggEKAoIBAQC9kgSkKzUFbBEGzl6qTkFudfR9jgjnlHq9lizmdv/F12hp
l8cPv/GRritCi5PevFC8rq5fK2hMXSMDCALNNz7wqhAXEdv5aQV4y/qArNnxB/l3
IdspVMXkfojniO6PsQqLx+jpS3bT0d06jRhRHd9IIbCvj8fkNyu54kXJwbmoCe7/
/fHDgp6lZro2Rf0N2KsGnzeT20Iiual740hqh/p5KEg4HPu7makvCb4F+ZC1InuK
M07wJrWR+yJlAlMeNibxcaHKvoK2/9SEmzDrdxchfVlaZFkFKEBB+7JLCyl4o6ih
cUTKTK1LRIf/bsNSD+qT+t18qBH7wjLgzo6lCkiZAgMBAAGjezB5MAkGA1UdEwQC
MAAwLAYJYIZIAYb4QgENBB8WHU9wZW5TU0wgR2VuZXJhdGVkIENlcnRpZmljYXRl
MB0GA1UdDgQWBBT6MfyOYClm2SJp2mRWcwHlh7uFHjAfBgNVHSMEGDAWgBTIo9Oa
ixykA7hY2TFzYOXaCoPccTANBgkqhkiG9w0BAQsFAAOCAQEAfaZhvL9Gda1VqN5h
7ud9kMmm3VC5SoZ7DvYIrU4rU3nAV3OrKrUPukdp3IiE8trgKfytzlYHvHSLLoVN
D9UKK8+VKn+7aa7wvhQ1x0UUCHdlZwpB2ib3qWl710S6180veQneR2KHjMLC1CFP
WOHVEj8EO+fTafoRw3c758iKKVEUuYzBJWjz2+FzKnMUA9qKwFZWUAv/886Kgepe
cYNGf9ZUt7aOz6hxS3IX/btHDYTdPTNJKjR1dl8sSv/1ahEy3gX2555lcCOePpC2
sbh+6YjFhgYOrgz7focPhlR93DzTu3ARFMepfnJ6lkaEcfsiGMMFn1HOHLF8Hjjr
T5LAHw==
-----END CERTIFICATE-----
