Certificate:
    Data:
        Version: 3 (0x2)
        Serial Number:
            4b:e3:db:20:e2:d0:51:96:fa:e7:06:bd:54:d4:81:95:d1:6f:3d:17
        Signature Algorithm: sha256WithRSAEncryption
        Issuer: C=FR, ST=Some-State, O=INSA, CN=ca.fr/emailAddress=tata@tata.fr
        Validity
            Not Before: Feb 27 15:58:16 2022 GMT
            Not After : Feb 26 15:58:16 2025 GMT
        Subject: C=FR, ST=Some-State, O=INSA, CN=ca.fr/emailAddress=tata@tata.fr
        Subject Public Key Info:
            Public Key Algorithm: rsaEncryption
                RSA Public-Key: (2048 bit)
                Modulus:
                    00:b2:92:f1:e8:a0:5d:b7:20:72:e7:7a:c6:09:0e:
                    b8:62:af:44:ff:b9:ad:08:cc:00:11:87:aa:bb:7f:
                    ab:c1:2e:51:f6:e1:d1:c1:2e:a3:5b:e3:66:ca:04:
                    f9:34:38:83:64:ce:74:50:cb:1c:d6:62:e2:87:ab:
                    74:29:41:71:76:4d:1f:3d:35:b3:b4:77:dd:0f:71:
                    f0:d4:0d:76:6b:5f:26:29:07:e7:e9:e3:89:60:f0:
                    08:fc:6d:42:8d:c5:94:75:46:32:c3:47:ed:70:1b:
                    f9:73:0c:19:1c:18:c0:84:ce:69:e8:c4:1b:24:5f:
                    87:da:43:47:4f:6f:6c:7d:d0:81:89:e1:24:f9:6b:
                    b3:4a:ff:c9:9a:dc:07:e1:8c:6e:bf:49:7c:1e:23:
                    18:2d:69:43:7c:84:21:f6:2b:de:d5:35:35:96:19:
                    73:d4:be:ef:34:75:91:8d:4b:e3:3a:b7:b6:b0:ef:
                    ed:49:31:e1:2c:15:12:79:9f:04:77:a7:a1:2b:30:
                    5f:e6:23:34:e3:71:9c:f1:1a:08:02:75:91:94:fb:
                    55:d3:36:2d:6b:bc:49:f9:dc:eb:79:22:aa:2a:48:
                    9a:bd:7e:44:a4:7f:f6:68:88:0c:d6:2b:08:58:65:
                    60:d6:e2:1a:c0:88:06:0a:ed:0d:a7:ab:23:4b:f9:
                    48:45
                Exponent: 65537 (0x10001)
        X509v3 extensions:
            X509v3 Subject Key Identifier: 
                C8:A3:D3:9A:8B:1C:A4:03:B8:58:D9:31:73:60:E5:DA:0A:83:DC:71
            X509v3 Authority Key Identifier: 
                keyid:C8:A3:D3:9A:8B:1C:A4:03:B8:58:D9:31:73:60:E5:DA:0A:83:DC:71

            X509v3 Basic Constraints: critical
                CA:TRUE
    Signature Algorithm: sha256WithRSAEncryption
         a4:00:e0:16:fa:3f:bc:ec:c8:3b:d2:41:ca:78:88:2e:de:6b:
         63:61:0c:b9:a0:03:0c:32:6b:f6:57:03:55:b4:7a:46:7d:49:
         86:81:11:27:98:db:5a:92:9c:5c:48:39:7d:5e:e4:7f:98:ab:
         e0:15:38:0e:9f:3d:91:9b:6f:15:27:6b:16:10:b3:f8:2e:cf:
         ec:9d:4b:0b:1a:67:02:f4:bf:62:dc:60:1c:48:14:7a:7b:9f:
         13:ea:e1:d3:e0:5a:6a:45:80:30:ba:ac:6d:34:d9:de:b2:4c:
         7b:2a:75:31:c3:cd:21:b8:d5:53:f8:13:53:f1:3d:85:28:d7:
         0e:cd:05:e6:e7:d8:2c:a7:2c:2c:0a:8e:42:d9:cd:c6:2f:1c:
         a6:b3:65:b6:3b:8e:78:f2:5e:22:21:b4:64:3e:dc:fe:23:69:
         59:3c:42:23:21:45:cc:51:ca:f5:bb:72:f3:06:63:f6:a2:2b:
         b9:91:a0:98:64:9d:37:41:0d:53:ea:7b:12:5c:49:e7:29:cb:
         38:dd:ec:01:2a:8c:52:b6:4d:3b:91:85:6a:05:9d:af:7a:44:
         76:93:d4:03:12:22:03:c8:1e:f1:ef:65:f5:de:2e:2e:ed:99:
         1c:0a:7d:79:b3:40:6a:6f:08:9d:9f:6c:8e:dd:53:22:45:62:
         21:ad:c5:ca
-----BEGIN CERTIFICATE-----
MIIDnTCCAoWgAwIBAgIUS+PbIOLQUZb65wa9VNSBldFvPRcwDQYJKoZIhvcNAQEL
BQAwXjELMAkGA1UEBhMCRlIxEzARBgNVBAgMClNvbWUtU3RhdGUxDTALBgNVBAoM
BElOU0ExDjAMBgNVBAMMBWNhLmZyMRswGQYJKoZIhvcNAQkBFgx0YXRhQHRhdGEu
ZnIwHhcNMjIwMjI3MTU1ODE2WhcNMjUwMjI2MTU1ODE2WjBeMQswCQYDVQQGEwJG
UjETMBEGA1UECAwKU29tZS1TdGF0ZTENMAsGA1UECgwESU5TQTEOMAwGA1UEAwwF
Y2EuZnIxGzAZBgkqhkiG9w0BCQEWDHRhdGFAdGF0YS5mcjCCASIwDQYJKoZIhvcN
AQEBBQADggEPADCCAQoCggEBALKS8eigXbcgcud6xgkOuGKvRP+5rQjMABGHqrt/
q8EuUfbh0cEuo1vjZsoE+TQ4g2TOdFDLHNZi4oerdClBcXZNHz01s7R33Q9x8NQN
dmtfJikH5+njiWDwCPxtQo3FlHVGMsNH7XAb+XMMGRwYwITOaejEGyRfh9pDR09v
bH3QgYnhJPlrs0r/yZrcB+GMbr9JfB4jGC1pQ3yEIfYr3tU1NZYZc9S+7zR1kY1L
4zq3trDv7Ukx4SwVEnmfBHenoSswX+YjNONxnPEaCAJ1kZT7VdM2LWu8Sfnc63ki
qipImr1+RKR/9miIDNYrCFhlYNbiGsCIBgrtDaerI0v5SEUCAwEAAaNTMFEwHQYD
VR0OBBYEFMij05qLHKQDuFjZMXNg5doKg9xxMB8GA1UdIwQYMBaAFMij05qLHKQD
uFjZMXNg5doKg9xxMA8GA1UdEwEB/wQFMAMBAf8wDQYJKoZIhvcNAQELBQADggEB
AKQA4Bb6P7zsyDvSQcp4iC7ea2NhDLmgAwwya/ZXA1W0ekZ9SYaBESeY21qSnFxI
OX1e5H+Yq+AVOA6fPZGbbxUnaxYQs/guz+ydSwsaZwL0v2LcYBxIFHp7nxPq4dPg
WmpFgDC6rG002d6yTHsqdTHDzSG41VP4E1PxPYUo1w7NBebn2CynLCwKjkLZzcYv
HKazZbY7jnjyXiIhtGQ+3P4jaVk8QiMhRcxRyvW7cvMGY/aiK7mRoJhknTdBDVPq
exJcSecpyzjd7AEqjFK2TTuRhWoFna96RHaT1AMSIgPIHvHvZfXeLi7tmRwKfXmz
QGpvCJ2fbI7dUyJFYiGtxco=
-----END CERTIFICATE-----
